; Function Attrs: mustprogress nounwind uwtable
define void @_ZN7rocksdb10WriteBatch23MarkWalTerminationPointEv(ptr noundef nonnull align 8 dereferenceable(96) %this) local_unnamed_addr #0 align 2 {
entry:
  %rep_.i = getelementptr inbounds i8, ptr %this, i64 64
  %call.i = tail call noundef i64 @_ZNKSt7__cxx1112basic_stringIcSt11char_traitsIcESaIcEE4sizeEv(ptr noundef nonnull align 8 dereferenceable(32) %rep_.i) #24
  %wal_term_point_ = getelementptr inbounds i8, ptr %this, i64 16
  store i64 %call.i, ptr %wal_term_point_, align 8
  %call.i.i = tail call noundef ptr @_ZNKSt7__cxx1112basic_stringIcSt11char_traitsIcESaIcEE4dataEv(ptr noundef nonnull align 8 dereferenceable(32) %rep_.i) #24
  %add.ptr.i.i = getelementptr inbounds i8, ptr %call.i.i, i64 8
  %result.0.copyload.i.i.i = load i32, ptr %add.ptr.i.i, align 1
  %count = getelementptr inbounds i8, ptr %this, i64 24
  store i32 %result.0.copyload.i.i.i, ptr %count, align 8
  %content_flags_ = getelementptr inbounds i8, ptr %this, i64 36
  %0 = load atomic i32, ptr %content_flags_ seq_cst, align 4
  %content_flags = getelementptr inbounds i8, ptr %this, i64 28
  store i32 %0, ptr %content_flags, align 4
  ret void
}